; Function Attrs: null_pointer_is_valid sspstrong uwtable
define internal noundef i32 @raknet_dissect_open_connection_reply_2(ptr noundef %0, ptr noundef %1, ptr noundef %2, ptr readnone captures(none) %3) #0 {
  %5 = alloca i32, align 4
  call void @llvm.lifetime.start.p0(i64 4, ptr nonnull %5) #5
  %6 = load i32, ptr @proto_raknet, align 4
  %7 = tail call ptr @proto_tree_add_item(ptr noundef %2, i32 noundef %6, ptr noundef %0, i32 noundef 0, i32 noundef -1, i32 noundef 0)
  %8 = load i32, ptr @ett_raknet, align 4
  %9 = tail call ptr @proto_item_add_subtree(ptr noundef %7, i32 noundef %8)
  %10 = tail call zeroext i8 @tvb_get_uint8(ptr noundef %0, i32 noundef 0)
  %11 = load i32, ptr @hf_raknet_offline_message_id, align 4
  %12 = tail call ptr @proto_tree_add_item(ptr noundef %9, i32 noundef %11, ptr noundef %0, i32 noundef 0, i32 noundef 1, i32 noundef 0)
  %13 = getelementptr inbounds nuw i8, ptr %1, i64 8
  %14 = load ptr, ptr %13, align 8
  %15 = zext i8 %10 to i32
  %16 = tail call ptr @val_to_str(i32 noundef %15, ptr noundef nonnull @raknet_offline_message_names, ptr noundef nonnull @.str.205)
  tail call void @col_add_str(ptr noundef %14, i32 noundef 25, ptr noundef %16)
  tail call void (ptr, ptr, ...) @proto_item_append_text(ptr noundef %7, ptr noundef nonnull @.str.206, i32 noundef %15)
  %17 = load i32, ptr @hf_raknet_offline_message_data_id, align 4
  %18 = tail call ptr @proto_tree_add_item(ptr noundef %9, i32 noundef %17, ptr noundef %0, i32 noundef 1, i32 noundef 16, i32 noundef 0)
  %19 = load i32, ptr @hf_raknet_server_guid, align 4
  %20 = tail call ptr @proto_tree_add_item(ptr noundef %9, i32 noundef %19, ptr noundef %0, i32 noundef 17, i32 noundef 8, i32 noundef 0)
  store i32 25, ptr %5, align 4
  %21 = load i32, ptr @hf_raknet_client_address, align 4
  call fastcc void @raknet_dissect_system_address(ptr noundef %9, i32 noundef %21, ptr noundef %1, ptr noundef %0, ptr noundef nonnull %5)
  %22 = load i32, ptr @hf_raknet_mtu_size, align 4
  %23 = load i32, ptr %5, align 4
  %24 = tail call ptr @proto_tree_add_item(ptr noundef %9, i32 noundef %22, ptr noundef %0, i32 noundef %23, i32 noundef 2, i32 noundef 0)
  %25 = add i32 %23, 2
  %26 = tail call ptr @find_or_create_conversation(ptr noundef %1)
  %27 = load i32, ptr @proto_raknet, align 4
  %28 = tail call ptr @conversation_get_proto_data(ptr noundef %26, i32 noundef %27)
  %29 = icmp eq ptr %28, null
  br i1 %29, label %30, label %raknet_get_session_state.exit

30:                                               ; preds = %4
  %31 = tail call ptr @wmem_file_scope()
  %32 = tail call noalias dereferenceable_or_null(16) ptr @wmem_alloc(ptr noundef %31, i64 noundef 16) #4
  store i8 0, ptr %32, align 8
  %33 = getelementptr inbounds nuw i8, ptr %32, i64 8
  store ptr null, ptr %33, align 8
  %34 = load i32, ptr @proto_raknet, align 4
  tail call void @conversation_add_proto_data(ptr noundef %26, i32 noundef %34, ptr noundef %32)
  br label %raknet_get_session_state.exit

raknet_get_session_state.exit:                    ; preds = %4, %30
  %.0.i = phi ptr [ %32, %30 ], [ %28, %4 ]
  %35 = tail call zeroext i8 @tvb_get_uint8(ptr noundef %0, i32 noundef %25)
  %36 = icmp ne i8 %35, 0
  %37 = zext i1 %36 to i8
  store i8 %37, ptr %.0.i, align 8
  %38 = load i32, ptr @hf_raknet_use_encryption, align 4
  %39 = tail call ptr @proto_tree_add_item(ptr noundef %9, i32 noundef %38, ptr noundef %0, i32 noundef %25, i32 noundef 1, i32 noundef 0)
  %40 = add i32 %23, 3
  %41 = load i8, ptr %.0.i, align 8, !range !9, !noundef !10
  %42 = trunc nuw i8 %41 to i1
  br i1 %42, label %43, label %47

43:                                               ; preds = %raknet_get_session_state.exit
  %44 = load i32, ptr @hf_raknet_server_answer, align 4
  %45 = tail call ptr @proto_tree_add_item(ptr noundef %9, i32 noundef %44, ptr noundef %0, i32 noundef %40, i32 noundef 128, i32 noundef 0)
  %46 = add i32 %23, 131
  br label %47

47:                                               ; preds = %43, %raknet_get_session_state.exit
  %48 = phi i32 [ %46, %43 ], [ %40, %raknet_get_session_state.exit ]
  call void @llvm.lifetime.end.p0(i64 4, ptr nonnull %5) #5
  ret i32 %48
}